target datalayout = "e-m:e-p270:32:32-p271:32:32-p272:64:64-i64:64-i128:128-f80:128-n8:16:32:64-S128"
target triple = "x86_64-pc-linux-gnu"

%struct.PyModuleDef = type { %struct.PyModuleDef_Base, ptr, ptr, i64, ptr, ptr, ptr, ptr, ptr }
%struct.PyModuleDef_Base = type { %struct._object, ptr, i64, ptr }
%struct._object = type { %union.anon, ptr }
%union.anon = type { i64 }

@uuidmodule = internal global %struct.PyModuleDef { %struct.PyModuleDef_Base { %struct._object { %union.anon { i64 552977039360 }, ptr null }, ptr null, i64 0, ptr null }, ptr @.str, ptr null, i64 0, ptr @uuid_methods, ptr @uuid_slots, ptr null, ptr null, ptr null }, align 8
@.str = private unnamed_addr constant [6 x i8] c"_uuid\00", align 1
@.str.1 = private unnamed_addr constant [19 x i8] c"generate_time_safe\00", align 1
@uuid_methods = internal global [2 x { ptr, ptr, i32, [4 x i8], ptr }] [{ ptr, ptr, i32, [4 x i8], ptr } { ptr @.str.1, ptr @py_uuid_generate_time_safe, i32 4, [4 x i8] zeroinitializer, ptr null }, { ptr, ptr, i32, [4 x i8], ptr } zeroinitializer], align 16
@.str.3 = private unnamed_addr constant [4 x i8] c"y#i\00", align 1
@uuid_slots = internal global [4 x { i32, [4 x i8], ptr }] [{ i32, [4 x i8], ptr } { i32 2, [4 x i8] zeroinitializer, ptr @uuid_exec }, { i32, [4 x i8], ptr } { i32 3, [4 x i8] zeroinitializer, ptr inttoptr (i64 2 to ptr) }, { i32, [4 x i8], ptr } { i32 4, [4 x i8] zeroinitializer, ptr inttoptr (i64 1 to ptr) }, { i32, [4 x i8], ptr } zeroinitializer], align 16
@.str.5 = private unnamed_addr constant [28 x i8] c"has_uuid_generate_time_safe\00", align 1

; Function Attrs: nounwind uwtable
define ptr @PyInit__uuid() #0 {
  %1 = call ptr @PyModuleDef_Init(ptr noundef @uuidmodule)
  ret ptr %1
}

declare ptr @PyModuleDef_Init(ptr noundef) #1

; Function Attrs: nounwind uwtable
define internal ptr @py_uuid_generate_time_safe(ptr noundef %0, ptr noundef %1) #0 {
  %3 = alloca ptr, align 8
  %4 = alloca ptr, align 8
  %5 = alloca [16 x i8], align 16
  %6 = alloca i32, align 4
  store ptr %0, ptr %3, align 8, !tbaa !3
  store ptr %1, ptr %4, align 8, !tbaa !3
  call void @llvm.lifetime.start.p0(i64 16, ptr %5) #3
  call void @llvm.lifetime.start.p0(i64 4, ptr %6) #3
  %7 = getelementptr inbounds [16 x i8], ptr %5, i64 0, i64 0
  %8 = call i32 @uuid_generate_time_safe(ptr noundef %7)
  store i32 %8, ptr %6, align 4, !tbaa !8
  %9 = getelementptr inbounds [16 x i8], ptr %5, i64 0, i64 0
  %10 = load i32, ptr %6, align 4, !tbaa !8
  %11 = call ptr (ptr, ...) @Py_BuildValue(ptr noundef @.str.3, ptr noundef %9, i64 noundef 16, i32 noundef %10)
  call void @llvm.lifetime.end.p0(i64 4, ptr %6) #3
  call void @llvm.lifetime.end.p0(i64 16, ptr %5) #3
  ret ptr %11
}

; Function Attrs: nocallback nofree nosync nounwind willreturn memory(argmem: readwrite)
declare void @llvm.lifetime.start.p0(i64 immarg, ptr captures(none)) #2

declare i32 @uuid_generate_time_safe(ptr noundef) #1

declare ptr @Py_BuildValue(ptr noundef, ...) #1

; Function Attrs: nocallback nofree nosync nounwind willreturn memory(argmem: readwrite)
declare void @llvm.lifetime.end.p0(i64 immarg, ptr captures(none)) #2

; Function Attrs: nounwind uwtable
define internal i32 @uuid_exec(ptr noundef %0) #0 {
  %2 = alloca i32, align 4
  %3 = alloca ptr, align 8
  %4 = alloca i32, align 4
  %5 = alloca i32, align 4
  store ptr %0, ptr %3, align 8, !tbaa !3
  call void @llvm.lifetime.start.p0(i64 4, ptr %4) #3
  store i32 1, ptr %4, align 4, !tbaa !8
  %6 = load ptr, ptr %3, align 8, !tbaa !3
  %7 = load i32, ptr %4, align 4, !tbaa !8
  %8 = sext i32 %7 to i64
  %9 = call i32 @PyModule_AddIntConstant(ptr noundef %6, ptr noundef @.str.5, i64 noundef %8)
  %10 = icmp slt i32 %9, 0
  br i1 %10, label %11, label %12

11:                                               ; preds = %1
  store i32 -1, ptr %2, align 4
  store i32 1, ptr %5, align 4
  br label %13

12:                                               ; preds = %1
  store i32 0, ptr %2, align 4
  store i32 1, ptr %5, align 4
  br label %13

13:                                               ; preds = %12, %11
  call void @llvm.lifetime.end.p0(i64 4, ptr %4) #3
  %14 = load i32, ptr %2, align 4
  ret i32 %14
}

declare i32 @PyModule_AddIntConstant(ptr noundef, ptr noundef, i64 noundef) #1


!llvm.module.flags = !{!0, !1, !2}

!0 = !{i32 1, !"wchar_size", i32 4}
!1 = !{i32 8, !"PIC Level", i32 2}
!2 = !{i32 7, !"uwtable", i32 2}
!3 = !{!4, !4, i64 0}
!4 = !{!"p1 _ZTS7_object", !5, i64 0}
!5 = !{!"any pointer", !6, i64 0}
!6 = !{!"omnipotent char", !7, i64 0}
!7 = !{!"Simple C/C++ TBAA"}
!8 = !{!9, !9, i64 0}
!9 = !{!"int", !6, i64 0}
