; ModuleID = 'bench/cpython/original/_uuidmodule.ll'
source_filename = "bench/cpython/original/_uuidmodule.ll"
target datalayout = "e-m:e-p270:32:32-p271:32:32-p272:64:64-i64:64-i128:128-f80:128-n8:16:32:64-S128"
target triple = "x86_64-pc-linux-gnu"

%struct.PyModuleDef = type { %struct.PyModuleDef_Base, ptr, ptr, i64, ptr, ptr, ptr, ptr, ptr }
%struct.PyModuleDef_Base = type { %struct._object, ptr, i64, ptr }
%struct._object = type { %union.anon, ptr }
%union.anon = type { i64 }

@uuidmodule = internal global %struct.PyModuleDef { %struct.PyModuleDef_Base { %struct._object { %union.anon { i64 552977039360 }, ptr null }, ptr null, i64 0, ptr null }, ptr @.str, ptr null, i64 0, ptr @uuid_methods, ptr @uuid_slots, ptr null, ptr null, ptr null }, align 8
@.str = private unnamed_addr constant [6 x i8] c"_uuid\00", align 1
@.str.1 = private unnamed_addr constant [19 x i8] c"generate_time_safe\00", align 1
@uuid_methods = internal global [2 x { ptr, ptr, i32, [4 x i8], ptr }] [{ ptr, ptr, i32, [4 x i8], ptr } { ptr @.str.1, ptr @py_uuid_generate_time_safe, i32 4, [4 x i8] zeroinitializer, ptr null }, { ptr, ptr, i32, [4 x i8], ptr } zeroinitializer], align 16
@.str.3 = private unnamed_addr constant [4 x i8] c"y#i\00", align 1
@uuid_slots = internal global [4 x { i32, [4 x i8], ptr }] [{ i32, [4 x i8], ptr } { i32 2, [4 x i8] zeroinitializer, ptr @uuid_exec }, { i32, [4 x i8], ptr } { i32 3, [4 x i8] zeroinitializer, ptr inttoptr (i64 2 to ptr) }, { i32, [4 x i8], ptr } { i32 4, [4 x i8] zeroinitializer, ptr inttoptr (i64 1 to ptr) }, { i32, [4 x i8], ptr } zeroinitializer], align 16
@.str.5 = private unnamed_addr constant [28 x i8] c"has_uuid_generate_time_safe\00", align 1

; Function Attrs: nounwind uwtable
define ptr @PyInit__uuid() local_unnamed_addr #0 {
  %1 = tail call ptr @PyModuleDef_Init(ptr noundef nonnull @uuidmodule) #3
  ret ptr %1
}

declare ptr @PyModuleDef_Init(ptr noundef) local_unnamed_addr #1

; Function Attrs: nounwind uwtable
define internal ptr @py_uuid_generate_time_safe(ptr readnone captures(none) %0, ptr readnone captures(none) %1) #0 {
  %3 = alloca [16 x i8], align 16
  call void @llvm.lifetime.start.p0(i64 16, ptr nonnull %3) #3
  %4 = call i32 @uuid_generate_time_safe(ptr noundef nonnull %3) #3
  %5 = call ptr (ptr, ...) @Py_BuildValue(ptr noundef nonnull @.str.3, ptr noundef nonnull %3, i64 noundef 16, i32 noundef %4) #3
  call void @llvm.lifetime.end.p0(i64 16, ptr nonnull %3) #3
  ret ptr %5
}

; Function Attrs: mustprogress nocallback nofree nosync nounwind willreturn memory(argmem: readwrite)
declare void @llvm.lifetime.start.p0(i64 immarg, ptr captures(none)) #2

declare i32 @uuid_generate_time_safe(ptr noundef) local_unnamed_addr #1

declare ptr @Py_BuildValue(ptr noundef, ...) local_unnamed_addr #1

; Function Attrs: mustprogress nocallback nofree nosync nounwind willreturn memory(argmem: readwrite)
declare void @llvm.lifetime.end.p0(i64 immarg, ptr captures(none)) #2

; Function Attrs: nounwind uwtable
define internal range(i32 -1, 1) i32 @uuid_exec(ptr noundef %0) #0 {
  %2 = tail call i32 @PyModule_AddIntConstant(ptr noundef %0, ptr noundef nonnull @.str.5, i64 noundef 1) #3
  %.lobit = ashr i32 %2, 31
  ret i32 %.lobit
}

declare i32 @PyModule_AddIntConstant(ptr noundef, ptr noundef, i64 noundef) local_unnamed_addr #1


!llvm.module.flags = !{!0, !1, !2}

!0 = !{i32 1, !"wchar_size", i32 4}
!1 = !{i32 8, !"PIC Level", i32 2}
!2 = !{i32 7, !"uwtable", i32 2}
